target datalayout = "e-m:e-p270:32:32-p271:32:32-p272:64:64-i64:64-i128:128-f80:128-n8:16:32:64-S128"
target triple = "x86_64-pc-linux-gnu"

%struct.hs_database = type { i32, i32, i32, i64, i32, i32, i32, i32, [16 x i32], [0 x i8] }

@hs_database_free = external global ptr, align 8

; Function Attrs: nounwind uwtable
define dso_local i32 @hs_free_database(ptr noundef %0) #0 {
  %2 = alloca i32, align 4
  %3 = alloca ptr, align 8
  store ptr %0, ptr %3, align 8
  %4 = load ptr, ptr %3, align 8
  %5 = icmp ne ptr %4, null
  br i1 %5, label %6, label %12

6:                                                ; preds = %1
  %7 = load ptr, ptr %3, align 8
  %8 = getelementptr inbounds nuw %struct.hs_database, ptr %7, i32 0, i32 0
  %9 = load i32, ptr %8, align 8
  %10 = icmp ne i32 %9, -606348325
  br i1 %10, label %11, label %12

11:                                               ; preds = %6
  store i32 -1, ptr %2, align 4
  br label %15

12:                                               ; preds = %6, %1
  %13 = load ptr, ptr @hs_database_free, align 8
  %14 = load ptr, ptr %3, align 8
  call void %13(ptr noundef %14)
  store i32 0, ptr %2, align 4
  br label %15

15:                                               ; preds = %12, %11
  %16 = load i32, ptr %2, align 4
  ret i32 %16
}