; Function Attrs: nounwind uwtable
define dso_local range(i32 -1, 1) i32 @hs_free_database(ptr noundef %0) local_unnamed_addr #0 {
  %.not = icmp eq ptr %0, null
  br i1 %.not, label %4, label %2

2:                                                ; preds = %1
  %3 = load i32, ptr %0, align 8
  %.not4 = icmp eq i32 %3, -606348325
  br i1 %.not4, label %4, label %6

4:                                                ; preds = %2, %1
  %5 = load ptr, ptr @hs_database_free, align 8
  tail call void %5(ptr noundef %0) #6
  br label %6

6:                                                ; preds = %2, %4
  %.0 = phi i32 [ 0, %4 ], [ -1, %2 ]
  ret i32 %.0
}